target datalayout = "e-m:e-p270:32:32-p271:32:32-p272:64:64-i64:64-i128:128-f80:128-n8:16:32:64-S128"
target triple = "x86_64-pc-linux-gnu"

%struct.OSSL_TIME = type { i64 }
%struct.ssl_session_st = type { i32, i64, [64 x i8], [512 x i8], i64, [32 x i8], i64, [32 x i8], ptr, ptr, i32, ptr, ptr, ptr, i64, %struct.OSSL_TIME, %struct.OSSL_TIME, %struct.OSSL_TIME, i32, ptr, i64, i32, %struct.crypto_ex_data_st, %struct.anon, ptr, ptr, i64, i32, ptr, ptr, ptr, %struct.CRYPTO_REF_COUNT }
%struct.crypto_ex_data_st = type { ptr, ptr }
%struct.anon = type { ptr, ptr, i64, i64, i32, i32, ptr, i64, i8 }
%struct.CRYPTO_REF_COUNT = type { i32 }
%struct.srp_ctx_st = type { ptr, ptr, ptr, ptr, ptr, ptr, ptr, ptr, ptr, ptr, ptr, ptr, ptr, ptr, i32, i64 }
%struct.ssl_ctx_st = type { ptr, ptr, ptr, ptr, ptr, ptr, ptr, i64, ptr, ptr, i32, %struct.OSSL_TIME, ptr, ptr, ptr, %struct.anon.4, %struct.CRYPTO_REF_COUNT, ptr, ptr, ptr, ptr, ptr, ptr, ptr, ptr, ptr, %struct.crypto_ex_data_st, ptr, ptr, ptr, ptr, ptr, ptr, ptr, i64, i32, i32, i32, i64, ptr, ptr, i32, ptr, ptr, i32, i64, [32 x i8], ptr, ptr, ptr, i32, ptr, ptr, ptr, i64, i64, i64, i64, ptr, ptr, ptr, ptr, ptr, %struct.anon.5, ptr, ptr, ptr, ptr, %struct.srp_ctx_st, %struct.dane_ctx_st, ptr, ptr, ptr, ptr, i32, i32, ptr, ptr, i64, i64, ptr, ptr, ptr, i64, ptr, ptr, i32, ptr, ptr, ptr, [14 x i32], [24 x ptr], [14 x ptr], [14 x i64], i64, ptr, ptr, ptr, i64, i64, ptr, i64, i64, i32, i32, i32, i32, ptr, i64, ptr, i64, i64, ptr, ptr }
%struct.anon.4 = type { i32, i32, i32, i32, i32, i32, i32, i32, i32, i32, i32 }
%struct.anon.5 = type { ptr, ptr, [16 x i8], ptr, ptr, ptr, ptr, ptr, i32, i8, i64, ptr, i64, ptr, i64, ptr, i64, ptr, ptr, i64, ptr, ptr, ptr, i64, ptr, ptr, ptr, ptr, [32 x i8] }
%struct.dane_ctx_st = type { ptr, ptr, i8, i64 }

; Function Attrs: nounwind uwtable
define internal void @SSL_SESSION_list_remove(ptr noundef %0, ptr noundef %1) #0 {
  %3 = alloca ptr, align 8
  %4 = alloca ptr, align 8
  store ptr %0, ptr %3, align 8, !tbaa !149
  store ptr %1, ptr %4, align 8, !tbaa !3
  %5 = load ptr, ptr %4, align 8, !tbaa !3
  %6 = getelementptr inbounds nuw %struct.ssl_session_st, ptr %5, i32 0, i32 30
  %7 = load ptr, ptr %6, align 8, !tbaa !95
  %8 = icmp eq ptr %7, null
  br i1 %8, label %14, label %9

9:                                                ; preds = %2
  %10 = load ptr, ptr %4, align 8, !tbaa !3
  %11 = getelementptr inbounds nuw %struct.ssl_session_st, ptr %10, i32 0, i32 29
  %12 = load ptr, ptr %11, align 8, !tbaa !94
  %13 = icmp eq ptr %12, null
  br i1 %13, label %14, label %15

14:                                               ; preds = %9, %2
  br label %89

15:                                               ; preds = %9
  %16 = load ptr, ptr %4, align 8, !tbaa !3
  %17 = getelementptr inbounds nuw %struct.ssl_session_st, ptr %16, i32 0, i32 30
  %18 = load ptr, ptr %17, align 8, !tbaa !95
  %19 = load ptr, ptr %3, align 8, !tbaa !149
  %20 = getelementptr inbounds nuw %struct.ssl_ctx_st, ptr %19, i32 0, i32 9
  %21 = icmp eq ptr %18, %20
  br i1 %21, label %22, label %47

22:                                               ; preds = %15
  %23 = load ptr, ptr %4, align 8, !tbaa !3
  %24 = getelementptr inbounds nuw %struct.ssl_session_st, ptr %23, i32 0, i32 29
  %25 = load ptr, ptr %24, align 8, !tbaa !94
  %26 = load ptr, ptr %3, align 8, !tbaa !149
  %27 = getelementptr inbounds nuw %struct.ssl_ctx_st, ptr %26, i32 0, i32 8
  %28 = icmp eq ptr %25, %27
  br i1 %28, label %29, label %34

29:                                               ; preds = %22
  %30 = load ptr, ptr %3, align 8, !tbaa !149
  %31 = getelementptr inbounds nuw %struct.ssl_ctx_st, ptr %30, i32 0, i32 8
  store ptr null, ptr %31, align 8, !tbaa !159
  %32 = load ptr, ptr %3, align 8, !tbaa !149
  %33 = getelementptr inbounds nuw %struct.ssl_ctx_st, ptr %32, i32 0, i32 9
  store ptr null, ptr %33, align 8, !tbaa !150
  br label %46

34:                                               ; preds = %22
  %35 = load ptr, ptr %4, align 8, !tbaa !3
  %36 = getelementptr inbounds nuw %struct.ssl_session_st, ptr %35, i32 0, i32 29
  %37 = load ptr, ptr %36, align 8, !tbaa !94
  %38 = load ptr, ptr %3, align 8, !tbaa !149
  %39 = getelementptr inbounds nuw %struct.ssl_ctx_st, ptr %38, i32 0, i32 9
  store ptr %37, ptr %39, align 8, !tbaa !150
  %40 = load ptr, ptr %3, align 8, !tbaa !149
  %41 = getelementptr inbounds nuw %struct.ssl_ctx_st, ptr %40, i32 0, i32 9
  %42 = load ptr, ptr %4, align 8, !tbaa !3
  %43 = getelementptr inbounds nuw %struct.ssl_session_st, ptr %42, i32 0, i32 29
  %44 = load ptr, ptr %43, align 8, !tbaa !94
  %45 = getelementptr inbounds nuw %struct.ssl_session_st, ptr %44, i32 0, i32 30
  store ptr %41, ptr %45, align 8, !tbaa !95
  br label %46

46:                                               ; preds = %34, %29
  br label %82

47:                                               ; preds = %15
  %48 = load ptr, ptr %4, align 8, !tbaa !3
  %49 = getelementptr inbounds nuw %struct.ssl_session_st, ptr %48, i32 0, i32 29
  %50 = load ptr, ptr %49, align 8, !tbaa !94
  %51 = load ptr, ptr %3, align 8, !tbaa !149
  %52 = getelementptr inbounds nuw %struct.ssl_ctx_st, ptr %51, i32 0, i32 8
  %53 = icmp eq ptr %50, %52
  br i1 %53, label %54, label %66

54:                                               ; preds = %47
  %55 = load ptr, ptr %4, align 8, !tbaa !3
  %56 = getelementptr inbounds nuw %struct.ssl_session_st, ptr %55, i32 0, i32 30
  %57 = load ptr, ptr %56, align 8, !tbaa !95
  %58 = load ptr, ptr %3, align 8, !tbaa !149
  %59 = getelementptr inbounds nuw %struct.ssl_ctx_st, ptr %58, i32 0, i32 8
  store ptr %57, ptr %59, align 8, !tbaa !159
  %60 = load ptr, ptr %3, align 8, !tbaa !149
  %61 = getelementptr inbounds nuw %struct.ssl_ctx_st, ptr %60, i32 0, i32 8
  %62 = load ptr, ptr %4, align 8, !tbaa !3
  %63 = getelementptr inbounds nuw %struct.ssl_session_st, ptr %62, i32 0, i32 30
  %64 = load ptr, ptr %63, align 8, !tbaa !95
  %65 = getelementptr inbounds nuw %struct.ssl_session_st, ptr %64, i32 0, i32 29
  store ptr %61, ptr %65, align 8, !tbaa !94
  br label %81

66:                                               ; preds = %47
  %67 = load ptr, ptr %4, align 8, !tbaa !3
  %68 = getelementptr inbounds nuw %struct.ssl_session_st, ptr %67, i32 0, i32 29
  %69 = load ptr, ptr %68, align 8, !tbaa !94
  %70 = load ptr, ptr %4, align 8, !tbaa !3
  %71 = getelementptr inbounds nuw %struct.ssl_session_st, ptr %70, i32 0, i32 30
  %72 = load ptr, ptr %71, align 8, !tbaa !95
  %73 = getelementptr inbounds nuw %struct.ssl_session_st, ptr %72, i32 0, i32 29
  store ptr %69, ptr %73, align 8, !tbaa !94
  %74 = load ptr, ptr %4, align 8, !tbaa !3
  %75 = getelementptr inbounds nuw %struct.ssl_session_st, ptr %74, i32 0, i32 30
  %76 = load ptr, ptr %75, align 8, !tbaa !95
  %77 = load ptr, ptr %4, align 8, !tbaa !3
  %78 = getelementptr inbounds nuw %struct.ssl_session_st, ptr %77, i32 0, i32 29
  %79 = load ptr, ptr %78, align 8, !tbaa !94
  %80 = getelementptr inbounds nuw %struct.ssl_session_st, ptr %79, i32 0, i32 30
  store ptr %76, ptr %80, align 8, !tbaa !95
  br label %81

81:                                               ; preds = %66, %54
  br label %82

82:                                               ; preds = %81, %46
  %83 = load ptr, ptr %4, align 8, !tbaa !3
  %84 = getelementptr inbounds nuw %struct.ssl_session_st, ptr %83, i32 0, i32 30
  store ptr null, ptr %84, align 8, !tbaa !95
  %85 = load ptr, ptr %4, align 8, !tbaa !3
  %86 = getelementptr inbounds nuw %struct.ssl_session_st, ptr %85, i32 0, i32 29
  store ptr null, ptr %86, align 8, !tbaa !94
  %87 = load ptr, ptr %4, align 8, !tbaa !3
  %88 = getelementptr inbounds nuw %struct.ssl_session_st, ptr %87, i32 0, i32 28
  store ptr null, ptr %88, align 8, !tbaa !96
  br label %89

89:                                               ; preds = %82, %14
  ret void
}

; Function Attrs: inlinehint nounwind uwtable
define internal ptr @lh_SSL_SESSION_delete(ptr noundef %0, ptr noundef %1) #2 {
  %3 = alloca ptr, align 8
  %4 = alloca ptr, align 8
  store ptr %0, ptr %3, align 8, !tbaa !148
  store ptr %1, ptr %4, align 8, !tbaa !3
  %5 = load ptr, ptr %3, align 8, !tbaa !148
  %6 = load ptr, ptr %4, align 8, !tbaa !3
  %7 = call ptr @OPENSSL_LH_delete(ptr noundef %5, ptr noundef %6)
  ret ptr %7
}

; Function Attrs: inlinehint nounwind uwtable
define internal ptr @lh_SSL_SESSION_retrieve(ptr noundef %0, ptr noundef %1) #2 {
  %3 = alloca ptr, align 8
  %4 = alloca ptr, align 8
  store ptr %0, ptr %3, align 8, !tbaa !148
  store ptr %1, ptr %4, align 8, !tbaa !3
  %5 = load ptr, ptr %3, align 8, !tbaa !148
  %6 = load ptr, ptr %4, align 8, !tbaa !3
  %7 = call ptr @OPENSSL_LH_retrieve(ptr noundef %5, ptr noundef %6)
  ret ptr %7
}

; Function Attrs: nounwind uwtable
define internal i32 @remove_session_lock(ptr noundef %0, ptr noundef %1, i32 noundef %2) #0 {
  %4 = alloca i32, align 4
  %5 = alloca ptr, align 8
  %6 = alloca ptr, align 8
  %7 = alloca i32, align 4
  %8 = alloca ptr, align 8
  %9 = alloca i32, align 4
  %10 = alloca i32, align 4
  store ptr %0, ptr %5, align 8, !tbaa !149
  store ptr %1, ptr %6, align 8, !tbaa !3
  store i32 %2, ptr %7, align 4, !tbaa !11
  call void @llvm.lifetime.start.p0(i64 8, ptr %8) #9
  call void @llvm.lifetime.start.p0(i64 4, ptr %9) #9
  store i32 0, ptr %9, align 4, !tbaa !11
  %11 = load ptr, ptr %6, align 8, !tbaa !3
  %12 = icmp ne ptr %11, null
  br i1 %12, label %13, label %71

13:                                               ; preds = %3
  %14 = load ptr, ptr %6, align 8, !tbaa !3
  %15 = getelementptr inbounds nuw %struct.ssl_session_st, ptr %14, i32 0, i32 4
  %16 = load i64, ptr %15, align 8, !tbaa !103
  %17 = icmp ne i64 %16, 0
  br i1 %17, label %18, label %71

18:                                               ; preds = %13
  %19 = load i32, ptr %7, align 4, !tbaa !11
  %20 = icmp ne i32 %19, 0
  br i1 %20, label %21, label %29

21:                                               ; preds = %18
  %22 = load ptr, ptr %5, align 8, !tbaa !149
  %23 = getelementptr inbounds nuw %struct.ssl_ctx_st, ptr %22, i32 0, i32 72
  %24 = load ptr, ptr %23, align 8, !tbaa !110
  %25 = call i32 @CRYPTO_THREAD_write_lock(ptr noundef %24)
  %26 = icmp ne i32 %25, 0
  br i1 %26, label %28, label %27

27:                                               ; preds = %21
  store i32 0, ptr %4, align 4
  store i32 1, ptr %10, align 4
  br label %73

28:                                               ; preds = %21
  br label %29

29:                                               ; preds = %28, %18
  %30 = load ptr, ptr %5, align 8, !tbaa !149
  %31 = getelementptr inbounds nuw %struct.ssl_ctx_st, ptr %30, i32 0, i32 6
  %32 = load ptr, ptr %31, align 8, !tbaa !145
  %33 = load ptr, ptr %6, align 8, !tbaa !3
  %34 = call ptr @lh_SSL_SESSION_retrieve(ptr noundef %32, ptr noundef %33)
  store ptr %34, ptr %8, align 8, !tbaa !3
  %35 = icmp ne ptr %34, null
  br i1 %35, label %36, label %44

36:                                               ; preds = %29
  store i32 1, ptr %9, align 4, !tbaa !11
  %37 = load ptr, ptr %5, align 8, !tbaa !149
  %38 = getelementptr inbounds nuw %struct.ssl_ctx_st, ptr %37, i32 0, i32 6
  %39 = load ptr, ptr %38, align 8, !tbaa !145
  %40 = load ptr, ptr %8, align 8, !tbaa !3
  %41 = call ptr @lh_SSL_SESSION_delete(ptr noundef %39, ptr noundef %40)
  store ptr %41, ptr %8, align 8, !tbaa !3
  %42 = load ptr, ptr %5, align 8, !tbaa !149
  %43 = load ptr, ptr %8, align 8, !tbaa !3
  call void @SSL_SESSION_list_remove(ptr noundef %42, ptr noundef %43)
  br label %44

44:                                               ; preds = %36, %29
  %45 = load ptr, ptr %6, align 8, !tbaa !3
  %46 = getelementptr inbounds nuw %struct.ssl_session_st, ptr %45, i32 0, i32 10
  store i32 1, ptr %46, align 8, !tbaa !101
  %47 = load i32, ptr %7, align 4, !tbaa !11
  %48 = icmp ne i32 %47, 0
  br i1 %48, label %49, label %54

49:                                               ; preds = %44
  %50 = load ptr, ptr %5, align 8, !tbaa !149
  %51 = getelementptr inbounds nuw %struct.ssl_ctx_st, ptr %50, i32 0, i32 72
  %52 = load ptr, ptr %51, align 8, !tbaa !110
  %53 = call i32 @CRYPTO_THREAD_unlock(ptr noundef %52)
  br label %54

54:                                               ; preds = %49, %44
  %55 = load ptr, ptr %5, align 8, !tbaa !149
  %56 = getelementptr inbounds nuw %struct.ssl_ctx_st, ptr %55, i32 0, i32 13
  %57 = load ptr, ptr %56, align 8, !tbaa !160
  %58 = icmp ne ptr %57, null
  br i1 %58, label %59, label %65

59:                                               ; preds = %54
  %60 = load ptr, ptr %5, align 8, !tbaa !149
  %61 = getelementptr inbounds nuw %struct.ssl_ctx_st, ptr %60, i32 0, i32 13
  %62 = load ptr, ptr %61, align 8, !tbaa !160
  %63 = load ptr, ptr %5, align 8, !tbaa !149
  %64 = load ptr, ptr %6, align 8, !tbaa !3
  call void %62(ptr noundef %63, ptr noundef %64)
  br label %65

65:                                               ; preds = %59, %54
  %66 = load i32, ptr %9, align 4, !tbaa !11
  %67 = icmp ne i32 %66, 0
  br i1 %67, label %68, label %70

68:                                               ; preds = %65
  %69 = load ptr, ptr %8, align 8, !tbaa !3
  call void @SSL_SESSION_free(ptr noundef %69)
  br label %70

70:                                               ; preds = %68, %65
  br label %71

71:                                               ; preds = %70, %13, %3
  %72 = load i32, ptr %9, align 4, !tbaa !11
  store i32 %72, ptr %4, align 4
  store i32 1, ptr %10, align 4
  br label %73

73:                                               ; preds = %71, %27
  call void @llvm.lifetime.end.p0(i64 4, ptr %9) #9
  call void @llvm.lifetime.end.p0(i64 8, ptr %8) #9
  %74 = load i32, ptr %4, align 4
  ret i32 %74
}