; Function Attrs: nounwind uwtable
define internal fastcc range(i32 0, 2) i32 @remove_session_lock(ptr noundef %0, ptr noundef %1, i32 noundef range(i32 0, 2) %2) unnamed_addr #3 {
  %.not = icmp eq ptr %1, null
  br i1 %.not, label %55, label %4

4:                                                ; preds = %3
  %5 = getelementptr inbounds nuw i8, ptr %1, i64 592
  %6 = load i64, ptr %5, align 8, !tbaa !91
  %.not26 = icmp eq i64 %6, 0
  br i1 %.not26, label %55, label %7

7:                                                ; preds = %4
  %.not27 = icmp eq i32 %2, 0
  br i1 %.not27, label %12, label %8

8:                                                ; preds = %7
  %9 = getelementptr inbounds nuw i8, ptr %0, i64 1024
  %10 = load ptr, ptr %9, align 8, !tbaa !99
  %11 = tail call i32 @CRYPTO_THREAD_write_lock(ptr noundef %10) #11
  %.not28 = icmp eq i32 %11, 0
  br i1 %.not28, label %55, label %12

12:                                               ; preds = %8, %7
  %13 = getelementptr inbounds nuw i8, ptr %0, i64 48
  %14 = load ptr, ptr %13, align 8, !tbaa !134
  %15 = tail call ptr @OPENSSL_LH_retrieve(ptr noundef %14, ptr noundef nonnull %1) #11
  %.not29 = icmp eq ptr %15, null
  br i1 %.not29, label %SSL_SESSION_list_remove.exit, label %16

16:                                               ; preds = %12
  %17 = load ptr, ptr %13, align 8, !tbaa !134
  %18 = tail call ptr @OPENSSL_LH_delete(ptr noundef %17, ptr noundef nonnull %15) #11
  %19 = getelementptr inbounds nuw i8, ptr %18, i64 912
  %20 = load ptr, ptr %19, align 8, !tbaa !137
  %21 = icmp eq ptr %20, null
  br i1 %21, label %SSL_SESSION_list_remove.exit, label %22

22:                                               ; preds = %16
  %23 = getelementptr inbounds nuw i8, ptr %18, i64 904
  %24 = load ptr, ptr %23, align 8, !tbaa !138
  %25 = icmp eq ptr %24, null
  br i1 %25, label %SSL_SESSION_list_remove.exit, label %26

26:                                               ; preds = %22
  %27 = getelementptr inbounds nuw i8, ptr %0, i64 72
  %28 = icmp eq ptr %20, %27
  %29 = getelementptr inbounds nuw i8, ptr %0, i64 64
  %30 = icmp eq ptr %24, %29
  br i1 %28, label %31, label %35

31:                                               ; preds = %26
  br i1 %30, label %32, label %33

32:                                               ; preds = %31
  tail call void @llvm.memset.p0.i64(ptr noundef nonnull align 8 dereferenceable(16) %29, i8 0, i64 16, i1 false)
  br label %42

33:                                               ; preds = %31
  store ptr %24, ptr %27, align 8, !tbaa !139
  %34 = getelementptr inbounds nuw i8, ptr %24, i64 912
  store ptr %27, ptr %34, align 8, !tbaa !137
  br label %42

35:                                               ; preds = %26
  br i1 %30, label %36, label %38

36:                                               ; preds = %35
  store ptr %20, ptr %29, align 8, !tbaa !140
  %37 = getelementptr inbounds nuw i8, ptr %20, i64 904
  store ptr %29, ptr %37, align 8, !tbaa !138
  br label %42

38:                                               ; preds = %35
  %39 = getelementptr inbounds nuw i8, ptr %20, i64 904
  store ptr %24, ptr %39, align 8, !tbaa !138
  %40 = load ptr, ptr %23, align 8, !tbaa !138
  %41 = getelementptr inbounds nuw i8, ptr %40, i64 912
  store ptr %20, ptr %41, align 8, !tbaa !137
  br label %42

42:                                               ; preds = %38, %36, %33, %32
  %43 = getelementptr inbounds nuw i8, ptr %18, i64 896
  tail call void @llvm.memset.p0.i64(ptr noundef nonnull align 8 dereferenceable(24) %43, i8 0, i64 24, i1 false)
  br label %SSL_SESSION_list_remove.exit

SSL_SESSION_list_remove.exit:                     ; preds = %42, %22, %16, %12
  %.020 = phi ptr [ null, %12 ], [ %18, %16 ], [ %18, %22 ], [ %18, %42 ]
  %.1 = phi i32 [ 0, %12 ], [ 1, %16 ], [ 1, %22 ], [ 1, %42 ]
  %44 = getelementptr inbounds nuw i8, ptr %1, i64 688
  store i32 1, ptr %44, align 8, !tbaa !90
  br i1 %.not27, label %49, label %45

45:                                               ; preds = %SSL_SESSION_list_remove.exit
  %46 = getelementptr inbounds nuw i8, ptr %0, i64 1024
  %47 = load ptr, ptr %46, align 8, !tbaa !99
  %48 = tail call i32 @CRYPTO_THREAD_unlock(ptr noundef %47) #11
  br label %49

49:                                               ; preds = %45, %SSL_SESSION_list_remove.exit
  %50 = getelementptr inbounds nuw i8, ptr %0, i64 104
  %51 = load ptr, ptr %50, align 8, !tbaa !152
  %.not30 = icmp eq ptr %51, null
  br i1 %.not30, label %53, label %52

52:                                               ; preds = %49
  tail call void %51(ptr noundef nonnull %0, ptr noundef nonnull %1) #11
  br label %53

53:                                               ; preds = %52, %49
  br i1 %.not29, label %55, label %54

54:                                               ; preds = %53
  tail call void @SSL_SESSION_free(ptr noundef %.020)
  br label %55

55:                                               ; preds = %3, %4, %54, %53, %8
  %.021 = phi i32 [ 0, %8 ], [ %.1, %54 ], [ 0, %53 ], [ 0, %4 ], [ 0, %3 ]
  ret i32 %.021
}